; Function Attrs: nounwind uwtable
define internal fastcc void @spl_dual_it_fetch(ptr noundef %0, i32 noundef %1) unnamed_addr #0 {
  tail call fastcc void @spl_dual_it_free(ptr noundef %0)
  %.not = icmp eq i32 %1, 0
  br i1 %.not, label %11, label %3

3:                                                ; preds = %2
  %4 = getelementptr i8, ptr %0, i64 32
  %.val = load ptr, ptr %4, align 8
  %.not.i = icmp eq ptr %.val, null
  br i1 %.not.i, label %spl_dual_it_valid.exit.thread, label %spl_dual_it_valid.exit

spl_dual_it_valid.exit:                           ; preds = %3
  %5 = getelementptr inbounds i8, ptr %.val, i64 72
  %6 = load ptr, ptr %5, align 8
  %7 = getelementptr inbounds i8, ptr %6, i64 8
  %8 = load ptr, ptr %7, align 8
  %9 = tail call i32 %8(ptr noundef nonnull %.val) #10
  %10 = icmp eq i32 %9, 0
  br i1 %10, label %11, label %spl_dual_it_valid.exit.thread

11:                                               ; preds = %spl_dual_it_valid.exit, %2
  %12 = getelementptr inbounds i8, ptr %0, i64 32
  %13 = load ptr, ptr %12, align 8
  %14 = getelementptr inbounds i8, ptr %13, i64 72
  %15 = load ptr, ptr %14, align 8
  %16 = getelementptr inbounds i8, ptr %15, i64 16
  %17 = load ptr, ptr %16, align 8
  %18 = tail call ptr %17(ptr noundef %13) #10
  %.not29 = icmp eq ptr %18, null
  br i1 %.not29, label %29, label %19

19:                                               ; preds = %11
  %20 = getelementptr inbounds i8, ptr %0, i64 40
  %21 = load ptr, ptr %18, align 8
  %22 = getelementptr inbounds i8, ptr %18, i64 8
  %23 = load i32, ptr %22, align 8
  store ptr %21, ptr %20, align 8
  %24 = getelementptr inbounds i8, ptr %0, i64 48
  store i32 %23, ptr %24, align 8
  %25 = and i32 %23, 65280
  %.not30 = icmp eq i32 %25, 0
  br i1 %.not30, label %29, label %26

26:                                               ; preds = %19
  %27 = load i32, ptr %21, align 4
  %28 = add i32 %27, 1
  store i32 %28, ptr %21, align 4
  br label %29

29:                                               ; preds = %26, %19, %11
  %30 = load ptr, ptr %12, align 8
  %31 = getelementptr inbounds i8, ptr %30, i64 72
  %32 = load ptr, ptr %31, align 8
  %33 = getelementptr inbounds i8, ptr %32, i64 24
  %34 = load ptr, ptr %33, align 8
  %.not31 = icmp eq ptr %34, null
  %35 = getelementptr inbounds i8, ptr %0, i64 56
  br i1 %.not31, label %39, label %36

36:                                               ; preds = %29
  tail call void %34(ptr noundef nonnull %30, ptr noundef nonnull %35) #10
  %37 = load ptr, ptr getelementptr inbounds (%struct._zend_executor_globals, ptr @executor_globals, i64 0, i32 50), align 8
  %.not32 = icmp eq ptr %37, null
  br i1 %.not32, label %spl_dual_it_valid.exit.thread, label %38

38:                                               ; preds = %36
  tail call void @zval_ptr_dtor(ptr noundef nonnull %35) #10
  br label %.sink.split

39:                                               ; preds = %29
  %40 = getelementptr inbounds i8, ptr %0, i64 72
  %41 = load i64, ptr %40, align 8
  store i64 %41, ptr %35, align 8
  br label %.sink.split

.sink.split:                                      ; preds = %39, %38
  %.sink = phi i32 [ 0, %38 ], [ 4, %39 ]
  %42 = getelementptr inbounds i8, ptr %0, i64 64
  store i32 %.sink, ptr %42, align 8
  br label %spl_dual_it_valid.exit.thread

spl_dual_it_valid.exit.thread:                    ; preds = %36, %.sink.split, %3, %spl_dual_it_valid.exit
  ret void
}